(lp0
F0.12569576750145217
aF-0.03555745264763437
aF-0.15131487515430558
a.(lp0
F0.0670304616177095
aF-0.04245991629247583
aF-0.14596557682787561
a.(lp0
F0.11915661941735446
aF0.011155598795363226
aF-0.14774158561475165
a.(lp0
F0.05945375073541192
aF0.002772632532740616
aF-0.1437100581074438
a.