(lp0
F0.0968532086927488
aF0.007607956745432925
aF-0.15635995219381885
a.(lp0
F0.06973504141688888
aF0.00461427852906228
aF-0.1540990967060536
a.(lp0
F0.09591204918250958
aF0.025973440041830654
aF-0.15600316504805053
a.(lp0
F0.06762346514545445
aF0.023067353242126984
aF-0.15229215901999532
a.(lp0
F0.0676222167337088
aF0.023068640086856235
aF-0.15229251843544223
a.